target datalayout = "e-m:e-p270:32:32-p271:32:32-p272:64:64-i64:64-i128:128-f80:128-n8:16:32:64-S128"
target triple = "x86_64-pc-linux-gnu"

%struct.FmgrInfo = type { ptr, i32, i16, i8, i8, i8, ptr, ptr, ptr }
%struct.deparse_context = type { ptr, ptr, ptr, ptr, ptr, i32, i32, i32, i8, i8, i8, i8, ptr }
%union.ListCell = type { ptr }
%struct.ForEachState = type { ptr, i32 }
%struct.List = type { i32, i32, i32, ptr, [0 x %union.ListCell] }
%struct.SortGroupClause = type { i32, i32, i32, i32, i8, i8, i8 }
%struct.TypeCacheEntry = type { i32, i32, i16, i8, i8, i8, i8, i32, i32, i32, i32, i32, i32, i32, i32, i32, i32, i32, i32, i32, i32, %struct.FmgrInfo, %struct.FmgrInfo, %struct.FmgrInfo, %struct.FmgrInfo, ptr, i64, ptr, i32, i32, %struct.FmgrInfo, %struct.FmgrInfo, %struct.FmgrInfo, ptr, i32, i32, ptr, i32, ptr, ptr }

@.str.23 = private unnamed_addr constant [3 x i8] c", \00", align 1
@.str.32 = private unnamed_addr constant [1 x i8] zeroinitializer, align 1
@.str.198 = private unnamed_addr constant [13 x i8] c" NULLS FIRST\00", align 1
@.str.199 = private unnamed_addr constant [6 x i8] c" DESC\00", align 1
@.str.200 = private unnamed_addr constant [12 x i8] c" NULLS LAST\00", align 1
@.str.201 = private unnamed_addr constant [10 x i8] c" USING %s\00", align 1

; Function Attrs: nounwind uwtable
define internal void @get_rule_orderby(ptr noundef %0, ptr noundef %1, i1 noundef zeroext %2, ptr noundef %3) #0 {
  %5 = alloca ptr, align 8
  %6 = alloca ptr, align 8
  %7 = alloca i8, align 1
  %8 = alloca ptr, align 8
  %9 = alloca ptr, align 8
  %10 = alloca ptr, align 8
  %11 = alloca ptr, align 8
  %12 = alloca %struct.ForEachState, align 8
  %13 = alloca ptr, align 8
  %14 = alloca ptr, align 8
  %15 = alloca i32, align 4
  %16 = alloca ptr, align 8
  store ptr %0, ptr %5, align 8
  store ptr %1, ptr %6, align 8
  %17 = zext i1 %2 to i8
  store i8 %17, ptr %7, align 1
  store ptr %3, ptr %8, align 8
  call void @llvm.lifetime.start.p0(i64 8, ptr %9) #10
  %18 = load ptr, ptr %8, align 8
  %19 = getelementptr inbounds nuw %struct.deparse_context, ptr %18, i32 0, i32 0
  %20 = load ptr, ptr %19, align 8
  store ptr %20, ptr %9, align 8
  call void @llvm.lifetime.start.p0(i64 8, ptr %10) #10
  call void @llvm.lifetime.start.p0(i64 8, ptr %11) #10
  store ptr @.str.32, ptr %10, align 8
  call void @llvm.lifetime.start.p0(i64 16, ptr %12) #10
  %21 = getelementptr inbounds nuw %struct.ForEachState, ptr %12, i32 0, i32 0
  %22 = load ptr, ptr %5, align 8
  store ptr %22, ptr %21, align 8
  %23 = getelementptr inbounds nuw %struct.ForEachState, ptr %12, i32 0, i32 1
  store i32 0, ptr %23, align 8
  %24 = getelementptr i8, ptr %12, i64 12
  call void @llvm.memset.p0.i64(ptr align 4 %24, i8 0, i64 4, i1 false)
  br label %25

25:                                               ; preds = %119, %4
  %26 = getelementptr inbounds nuw %struct.ForEachState, ptr %12, i32 0, i32 0
  %27 = load ptr, ptr %26, align 8
  %28 = icmp ne ptr %27, null
  br i1 %28, label %29, label %46

29:                                               ; preds = %25
  %30 = getelementptr inbounds nuw %struct.ForEachState, ptr %12, i32 0, i32 1
  %31 = load i32, ptr %30, align 8
  %32 = getelementptr inbounds nuw %struct.ForEachState, ptr %12, i32 0, i32 0
  %33 = load ptr, ptr %32, align 8
  %34 = getelementptr inbounds nuw %struct.List, ptr %33, i32 0, i32 1
  %35 = load i32, ptr %34, align 4
  %36 = icmp slt i32 %31, %35
  br i1 %36, label %37, label %46

37:                                               ; preds = %29
  %38 = getelementptr inbounds nuw %struct.ForEachState, ptr %12, i32 0, i32 0
  %39 = load ptr, ptr %38, align 8
  %40 = getelementptr inbounds nuw %struct.List, ptr %39, i32 0, i32 3
  %41 = load ptr, ptr %40, align 8
  %42 = getelementptr inbounds nuw %struct.ForEachState, ptr %12, i32 0, i32 1
  %43 = load i32, ptr %42, align 8
  %44 = sext i32 %43 to i64
  %45 = getelementptr inbounds %union.ListCell, ptr %41, i64 %44
  store ptr %45, ptr %11, align 8
  br label %47

46:                                               ; preds = %29, %25
  store ptr null, ptr %11, align 8
  br label %47

47:                                               ; preds = %46, %37
  %48 = phi i32 [ 1, %37 ], [ 0, %46 ]
  %49 = icmp ne i32 %48, 0
  br i1 %49, label %51, label %50

50:                                               ; preds = %47
  call void @llvm.lifetime.end.p0(i64 16, ptr %12) #10
  br label %123

51:                                               ; preds = %47
  call void @llvm.lifetime.start.p0(i64 8, ptr %13) #10
  %52 = load ptr, ptr %11, align 8
  %53 = load ptr, ptr %52, align 8
  store ptr %53, ptr %13, align 8
  call void @llvm.lifetime.start.p0(i64 8, ptr %14) #10
  call void @llvm.lifetime.start.p0(i64 4, ptr %15) #10
  call void @llvm.lifetime.start.p0(i64 8, ptr %16) #10
  %54 = load ptr, ptr %9, align 8
  %55 = load ptr, ptr %10, align 8
  call void @appendStringInfoString(ptr noundef %54, ptr noundef %55)
  %56 = load ptr, ptr %13, align 8
  %57 = getelementptr inbounds nuw %struct.SortGroupClause, ptr %56, i32 0, i32 1
  %58 = load i32, ptr %57, align 4
  %59 = load ptr, ptr %6, align 8
  %60 = load i8, ptr %7, align 1, !range !4, !noundef !5
  %61 = trunc i8 %60 to i1
  %62 = load ptr, ptr %8, align 8
  %63 = call ptr @get_rule_sortgroupclause(i32 noundef %58, ptr noundef %59, i1 noundef zeroext %61, ptr noundef %62)
  store ptr %63, ptr %14, align 8
  %64 = load ptr, ptr %14, align 8
  %65 = call i32 @exprType(ptr noundef %64)
  store i32 %65, ptr %15, align 4
  %66 = load i32, ptr %15, align 4
  %67 = call ptr @lookup_type_cache(i32 noundef %66, i32 noundef 6)
  store ptr %67, ptr %16, align 8
  %68 = load ptr, ptr %13, align 8
  %69 = getelementptr inbounds nuw %struct.SortGroupClause, ptr %68, i32 0, i32 3
  %70 = load i32, ptr %69, align 4
  %71 = load ptr, ptr %16, align 8
  %72 = getelementptr inbounds nuw %struct.TypeCacheEntry, ptr %71, i32 0, i32 16
  %73 = load i32, ptr %72, align 4
  %74 = icmp eq i32 %70, %73
  br i1 %74, label %75, label %83

75:                                               ; preds = %51
  %76 = load ptr, ptr %13, align 8
  %77 = getelementptr inbounds nuw %struct.SortGroupClause, ptr %76, i32 0, i32 5
  %78 = load i8, ptr %77, align 1, !range !4, !noundef !5
  %79 = trunc i8 %78 to i1
  br i1 %79, label %80, label %82

80:                                               ; preds = %75
  %81 = load ptr, ptr %9, align 8
  call void @appendStringInfoString(ptr noundef %81, ptr noundef @.str.198)
  br label %82

82:                                               ; preds = %80, %75
  br label %118

83:                                               ; preds = %51
  %84 = load ptr, ptr %13, align 8
  %85 = getelementptr inbounds nuw %struct.SortGroupClause, ptr %84, i32 0, i32 3
  %86 = load i32, ptr %85, align 4
  %87 = load ptr, ptr %16, align 8
  %88 = getelementptr inbounds nuw %struct.TypeCacheEntry, ptr %87, i32 0, i32 17
  %89 = load i32, ptr %88, align 8
  %90 = icmp eq i32 %86, %89
  br i1 %90, label %91, label %100

91:                                               ; preds = %83
  %92 = load ptr, ptr %9, align 8
  call void @appendStringInfoString(ptr noundef %92, ptr noundef @.str.199)
  %93 = load ptr, ptr %13, align 8
  %94 = getelementptr inbounds nuw %struct.SortGroupClause, ptr %93, i32 0, i32 5
  %95 = load i8, ptr %94, align 1, !range !4, !noundef !5
  %96 = trunc i8 %95 to i1
  br i1 %96, label %99, label %97

97:                                               ; preds = %91
  %98 = load ptr, ptr %9, align 8
  call void @appendStringInfoString(ptr noundef %98, ptr noundef @.str.200)
  br label %99

99:                                               ; preds = %97, %91
  br label %117

100:                                              ; preds = %83
  %101 = load ptr, ptr %9, align 8
  %102 = load ptr, ptr %13, align 8
  %103 = getelementptr inbounds nuw %struct.SortGroupClause, ptr %102, i32 0, i32 3
  %104 = load i32, ptr %103, align 4
  %105 = load i32, ptr %15, align 4
  %106 = load i32, ptr %15, align 4
  %107 = call ptr @generate_operator_name(i32 noundef %104, i32 noundef %105, i32 noundef %106)
  call void (ptr, ptr, ...) @appendStringInfo(ptr noundef %101, ptr noundef @.str.201, ptr noundef %107)
  %108 = load ptr, ptr %13, align 8
  %109 = getelementptr inbounds nuw %struct.SortGroupClause, ptr %108, i32 0, i32 5
  %110 = load i8, ptr %109, align 1, !range !4, !noundef !5
  %111 = trunc i8 %110 to i1
  br i1 %111, label %112, label %114

112:                                              ; preds = %100
  %113 = load ptr, ptr %9, align 8
  call void @appendStringInfoString(ptr noundef %113, ptr noundef @.str.198)
  br label %116

114:                                              ; preds = %100
  %115 = load ptr, ptr %9, align 8
  call void @appendStringInfoString(ptr noundef %115, ptr noundef @.str.200)
  br label %116

116:                                              ; preds = %114, %112
  br label %117

117:                                              ; preds = %116, %99
  br label %118

118:                                              ; preds = %117, %82
  store ptr @.str.23, ptr %10, align 8
  call void @llvm.lifetime.end.p0(i64 8, ptr %16) #10
  call void @llvm.lifetime.end.p0(i64 4, ptr %15) #10
  call void @llvm.lifetime.end.p0(i64 8, ptr %14) #10
  call void @llvm.lifetime.end.p0(i64 8, ptr %13) #10
  br label %119

119:                                              ; preds = %118
  %120 = getelementptr inbounds nuw %struct.ForEachState, ptr %12, i32 0, i32 1
  %121 = load i32, ptr %120, align 8
  %122 = add i32 %121, 1
  store i32 %122, ptr %120, align 8
  br label %25, !llvm.loop !106

123:                                              ; preds = %50
  call void @llvm.lifetime.end.p0(i64 8, ptr %11) #10
  call void @llvm.lifetime.end.p0(i64 8, ptr %10) #10
  call void @llvm.lifetime.end.p0(i64 8, ptr %9) #10
  ret void
}