; Function Attrs: nounwind uwtable
define internal fastcc void @get_rule_orderby(ptr noundef readonly captures(address_is_null) %0, ptr noundef %1, i1 noundef zeroext %2, ptr noundef %3) unnamed_addr #0 {
  %5 = load ptr, ptr %3, align 8
  %6 = getelementptr inbounds nuw i8, ptr %0, i64 4
  %.not = icmp eq ptr %0, null
  br i1 %.not, label %._crit_edge, label %.lr.ph

.lr.ph:                                           ; preds = %4
  %7 = getelementptr inbounds nuw i8, ptr %0, i64 16
  %8 = load i32, ptr %6, align 4
  %9 = icmp sgt i32 %8, 0
  br i1 %9, label %.lr.ph42, label %._crit_edge

._crit_edge:                                      ; preds = %40, %.lr.ph, %4
  ret void

.lr.ph42:                                         ; preds = %.lr.ph, %40
  %.03741 = phi ptr [ @.str.23, %40 ], [ @.str.32, %.lr.ph ]
  %indvars.iv40 = phi i64 [ %indvars.iv.next, %40 ], [ 0, %.lr.ph ]
  %10 = load ptr, ptr %7, align 8
  %11 = getelementptr inbounds nuw %union.ListCell, ptr %10, i64 %indvars.iv40
  %12 = load ptr, ptr %11, align 8
  tail call void @appendStringInfoString(ptr noundef %5, ptr noundef nonnull %.03741) #11
  %13 = getelementptr inbounds nuw i8, ptr %12, i64 4
  %14 = load i32, ptr %13, align 4
  %15 = tail call fastcc ptr @get_rule_sortgroupclause(i32 noundef %14, ptr noundef %1, i1 noundef zeroext %2, ptr noundef nonnull %3)
  %16 = tail call i32 @exprType(ptr noundef %15) #11
  %17 = tail call ptr @lookup_type_cache(i32 noundef %16, i32 noundef 6) #11
  %18 = getelementptr inbounds nuw i8, ptr %12, i64 12
  %19 = load i32, ptr %18, align 4
  %20 = getelementptr inbounds nuw i8, ptr %17, i64 52
  %21 = load i32, ptr %20, align 4
  %22 = icmp eq i32 %19, %21
  br i1 %22, label %23, label %27

23:                                               ; preds = %.lr.ph42
  %24 = getelementptr inbounds nuw i8, ptr %12, i64 17
  %25 = load i8, ptr %24, align 1, !range !7, !noundef !8
  %26 = trunc nuw i8 %25 to i1
  br i1 %26, label %.sink.split, label %40

27:                                               ; preds = %.lr.ph42
  %28 = getelementptr inbounds nuw i8, ptr %17, i64 56
  %29 = load i32, ptr %28, align 8
  %30 = icmp eq i32 %19, %29
  br i1 %30, label %31, label %35

31:                                               ; preds = %27
  tail call void @appendStringInfoString(ptr noundef %5, ptr noundef nonnull @.str.199) #11
  %32 = getelementptr inbounds nuw i8, ptr %12, i64 17
  %33 = load i8, ptr %32, align 1, !range !7, !noundef !8
  %34 = trunc nuw i8 %33 to i1
  br i1 %34, label %40, label %.sink.split

35:                                               ; preds = %27
  %36 = tail call fastcc ptr @generate_operator_name(i32 noundef %19, i32 noundef %16, i32 noundef %16)
  tail call void (ptr, ptr, ...) @appendStringInfo(ptr noundef %5, ptr noundef nonnull @.str.201, ptr noundef %36) #11
  %37 = getelementptr inbounds nuw i8, ptr %12, i64 17
  %38 = load i8, ptr %37, align 1, !range !7, !noundef !8
  %39 = trunc nuw i8 %38 to i1
  %.str.198..str.200 = select i1 %39, ptr @.str.198, ptr @.str.200
  br label %.sink.split

.sink.split:                                      ; preds = %35, %31, %23
  %.str.200.sink = phi ptr [ @.str.198, %23 ], [ @.str.200, %31 ], [ %.str.198..str.200, %35 ]
  tail call void @appendStringInfoString(ptr noundef %5, ptr noundef nonnull %.str.200.sink) #11
  br label %40

40:                                               ; preds = %.sink.split, %31, %23
  %indvars.iv.next = add nuw nsw i64 %indvars.iv40, 1
  %41 = load i32, ptr %6, align 4
  %42 = sext i32 %41 to i64
  %43 = icmp slt i64 %indvars.iv.next, %42
  br i1 %43, label %.lr.ph42, label %._crit_edge
}